; Function Attrs: mustprogress nounwind uwtable
define internal fastcc noundef zeroext i1 @"_ZZN4llvm13BasicAAResult8aliasGEPEPKNS_11GEPOperatorENS_12LocationSizeEPKNS_5ValueES4_S7_S7_RNS_11AAQueryInfoEENK3$_0clERKN12_GLOBAL__N_116VariableGEPIndexE"(ptr noundef nonnull readonly align 8 dereferenceable(50) %0) unnamed_addr #0 align 2 {
  %2 = alloca %"class.llvm::TypeSize", align 8
  %3 = alloca %"class.llvm::TypeSize", align 8
  %4 = alloca %"class.llvm::APInt", align 8
  %5 = alloca %"class.llvm::APInt", align 8
  %6 = getelementptr inbounds nuw i8, ptr %0, i64 48
  %7 = load i8, ptr %6, align 8
  %8 = trunc i8 %7 to i1
  br i1 %8, label %_ZN4llvm5APIntD2Ev.exit9, label %9

9:                                                ; preds = %1
  %10 = load ptr, ptr %0, align 8
  %11 = getelementptr inbounds nuw i8, ptr %10, i64 8
  %12 = load ptr, ptr %11, align 8
  %13 = tail call { i64, i8 } @_ZNK4llvm4Type22getPrimitiveSizeInBitsEv(ptr noundef nonnull align 8 dereferenceable(24) %12) #25
  %.fca.0.extract = extractvalue { i64, i8 } %13, 0
  %.fca.1.extract = extractvalue { i64, i8 } %13, 1
  store i64 %.fca.0.extract, ptr %3, align 8
  %.sroa.2.0..sroa_idx = getelementptr inbounds i8, ptr %3, i64 8
  store i8 %.fca.1.extract, ptr %.sroa.2.0..sroa_idx, align 8
  %14 = call noundef i64 @_ZNK4llvm8TypeSizecvmEv(ptr noundef nonnull align 8 dereferenceable(9) %3) #22
  %15 = trunc i64 %14 to i32
  call void @llvm.lifetime.start.p0(i64 16, ptr nonnull %2)
  %16 = load ptr, ptr %0, align 8
  %17 = getelementptr inbounds nuw i8, ptr %16, i64 8
  %18 = load ptr, ptr %17, align 8
  %19 = call { i64, i8 } @_ZNK4llvm4Type22getPrimitiveSizeInBitsEv(ptr noundef nonnull align 8 dereferenceable(24) %18) #25
  %.fca.0.extract.i = extractvalue { i64, i8 } %19, 0
  %.fca.1.extract.i = extractvalue { i64, i8 } %19, 1
  store i64 %.fca.0.extract.i, ptr %2, align 8
  %.sroa.2.0..sroa_idx.i = getelementptr inbounds i8, ptr %2, i64 8
  store i8 %.fca.1.extract.i, ptr %.sroa.2.0..sroa_idx.i, align 8
  %20 = call noundef i64 @_ZNK4llvm8TypeSizecvmEv(ptr noundef nonnull align 8 dereferenceable(9) %2) #22
  %21 = getelementptr inbounds nuw i8, ptr %0, i64 16
  %22 = load i32, ptr %21, align 8
  %23 = getelementptr inbounds nuw i8, ptr %0, i64 8
  %24 = load i32, ptr %23, align 8
  %25 = getelementptr inbounds nuw i8, ptr %0, i64 12
  %26 = load i32, ptr %25, align 4
  %27 = trunc i64 %20 to i32
  call void @llvm.lifetime.end.p0(i64 16, ptr nonnull %2)
  %28 = add i32 %22, %15
  %29 = sub i32 %27, %28
  %30 = add i32 %29, %24
  %31 = add i32 %30, %26
  %32 = icmp slt i32 %31, 1
  br i1 %32, label %_ZN4llvm5APIntD2Ev.exit9, label %33

33:                                               ; preds = %9
  %34 = getelementptr inbounds nuw i8, ptr %0, i64 24
  %35 = getelementptr inbounds nuw i8, ptr %5, i64 8
  store i32 %31, ptr %35, align 8, !alias.scope !130
  %36 = icmp ult i32 %31, 65
  br i1 %36, label %37, label %43

37:                                               ; preds = %33
  %38 = add nuw nsw i32 %31, 63
  %39 = and i32 %38, 63
  %40 = xor i32 %39, 63
  %41 = zext nneg i32 %40 to i64
  %42 = lshr i64 -1, %41
  store i64 %42, ptr %5, align 8, !alias.scope !130
  br label %_ZN4llvm5APInt11getMaxValueEj.exit

43:                                               ; preds = %33
  call void @_ZN4llvm5APInt12initSlowCaseEmb(ptr noundef nonnull align 8 dereferenceable(12) %5, i64 noundef -1, i1 noundef zeroext true) #22
  br label %_ZN4llvm5APInt11getMaxValueEj.exit

_ZN4llvm5APInt11getMaxValueEj.exit:               ; preds = %37, %43
  %44 = getelementptr inbounds i8, ptr %0, i64 32
  %45 = load i32, ptr %44, align 8
  call void @_ZNK4llvm5APInt4zextEj(ptr dead_on_unwind nonnull writable sret(%"class.llvm::APInt") align 8 %4, ptr noundef nonnull align 8 dereferenceable(12) %5, i32 noundef %45) #22
  %46 = call noundef i32 @_ZNK4llvm5APInt7compareERKS0_(ptr noundef nonnull align 8 dereferenceable(12) %34, ptr noundef nonnull align 8 dereferenceable(12) %4) #25
  %47 = icmp slt i32 %46, 1
  %48 = getelementptr inbounds nuw i8, ptr %4, i64 8
  %49 = load i32, ptr %48, align 8
  %50 = icmp ugt i32 %49, 64
  br i1 %50, label %51, label %_ZN4llvm5APIntD2Ev.exit

51:                                               ; preds = %_ZN4llvm5APInt11getMaxValueEj.exit
  %52 = load ptr, ptr %4, align 8
  %53 = icmp eq ptr %52, null
  br i1 %53, label %_ZN4llvm5APIntD2Ev.exit, label %54

54:                                               ; preds = %51
  call void @_ZdaPv(ptr noundef nonnull %52) #26
  br label %_ZN4llvm5APIntD2Ev.exit

_ZN4llvm5APIntD2Ev.exit:                          ; preds = %_ZN4llvm5APInt11getMaxValueEj.exit, %51, %54
  %55 = load i32, ptr %35, align 8
  %56 = icmp ugt i32 %55, 64
  br i1 %56, label %57, label %_ZN4llvm5APIntD2Ev.exit9

57:                                               ; preds = %_ZN4llvm5APIntD2Ev.exit
  %58 = load ptr, ptr %5, align 8
  %59 = icmp eq ptr %58, null
  br i1 %59, label %_ZN4llvm5APIntD2Ev.exit9, label %60

60:                                               ; preds = %57
  call void @_ZdaPv(ptr noundef nonnull %58) #26
  br label %_ZN4llvm5APIntD2Ev.exit9

_ZN4llvm5APIntD2Ev.exit9:                         ; preds = %60, %57, %_ZN4llvm5APIntD2Ev.exit, %9, %1
  %.0 = phi i1 [ true, %1 ], [ false, %9 ], [ %47, %_ZN4llvm5APIntD2Ev.exit ], [ %47, %57 ], [ %47, %60 ]
  ret i1 %.0
}